; ModuleID = '3/2443.c'
source_filename = "3/2443.c"
target datalayout = "e-m:e-p270:32:32-p271:32:32-p272:64:64-i64:64-f80:128-n8:16:32:64-S128"
target triple = "x86_64-pc-linux-gnu"

@.str = private unnamed_addr constant [6 x i8] c"%d %d\00", align 1
@.str.1 = private unnamed_addr constant [4 x i8] c"%d \00", align 1
@.str.2 = private unnamed_addr constant [4 x i8] c"yes\00", align 1
@.str.3 = private unnamed_addr constant [3 x i8] c"no\00", align 1

; Function Attrs: noinline nounwind uwtable
define dso_local i32 @main() #0 {
  %1 = alloca i32, align 4
  %2 = alloca i32, align 4
  %3 = alloca i32, align 4
  %4 = alloca [1000 x i32], align 16
  %5 = alloca i32, align 4
  %6 = alloca i32, align 4
  %7 = alloca i32, align 4
  store i32 0, i32* %1, align 4
  %8 = call i32 (i8*, ...) @__isoc99_scanf(i8* getelementptr inbounds ([6 x i8], [6 x i8]* @.str, i64 0, i64 0), i32* %2, i32* %3)
  store i32 0, i32* %5, align 4
  br label %9

9:                                                ; preds = %18, %0
  %10 = load i32, i32* %5, align 4
  %11 = load i32, i32* %2, align 4
  %12 = icmp slt i32 %10, %11
  br i1 %12, label %13, label %21

13:                                               ; preds = %9
  %14 = load i32, i32* %5, align 4
  %15 = sext i32 %14 to i64
  %16 = getelementptr inbounds [1000 x i32], [1000 x i32]* %4, i64 0, i64 %15
  %17 = call i32 (i8*, ...) @__isoc99_scanf(i8* getelementptr inbounds ([4 x i8], [4 x i8]* @.str.1, i64 0, i64 0), i32* %16)
  br label %18

18:                                               ; preds = %13
  %19 = load i32, i32* %5, align 4
  %20 = add nsw i32 %19, 1
  store i32 %20, i32* %5, align 4
  br label %9

21:                                               ; preds = %9
  store i32 0, i32* %6, align 4
  br label %22

22:                                               ; preds = %77, %21
  %23 = load i32, i32* %6, align 4
  %24 = load i32, i32* %2, align 4
  %25 = sub nsw i32 %24, 1
  %26 = icmp slt i32 %23, %25
  br i1 %26, label %27, label %80

27:                                               ; preds = %22
  %28 = load i32, i32* %6, align 4
  %29 = add nsw i32 %28, 1
  store i32 %29, i32* %7, align 4
  br label %30

30:                                               ; preds = %73, %27
  %31 = load i32, i32* %7, align 4
  %32 = load i32, i32* %2, align 4
  %33 = icmp slt i32 %31, %32
  br i1 %33, label %34, label %76

34:                                               ; preds = %30
  %35 = load i32, i32* %6, align 4
  %36 = sext i32 %35 to i64
  %37 = getelementptr inbounds [1000 x i32], [1000 x i32]* %4, i64 0, i64 %36
  %38 = load i32, i32* %37, align 4
  %39 = load i32, i32* %7, align 4
  %40 = sext i32 %39 to i64
  %41 = getelementptr inbounds [1000 x i32], [1000 x i32]* %4, i64 0, i64 %40
  %42 = load i32, i32* %41, align 4
  %43 = add nsw i32 %38, %42
  %44 = load i32, i32* %3, align 4
  %45 = icmp eq i32 %43, %44
  br i1 %45, label %46, label %48

46:                                               ; preds = %34
  %47 = call i32 (i8*, ...) @printf(i8* getelementptr inbounds ([4 x i8], [4 x i8]* @.str.2, i64 0, i64 0))
  store i32 0, i32* %1, align 4
  br label %80

48:                                               ; preds = %34
  %49 = load i32, i32* %6, align 4
  %50 = load i32, i32* %2, align 4
  %51 = sub nsw i32 %50, 2
  %52 = icmp eq i32 %49, %51
  br i1 %52, label %53, label %72

53:                                               ; preds = %48
  %54 = load i32, i32* %7, align 4
  %55 = load i32, i32* %2, align 4
  %56 = sub nsw i32 %55, 1
  %57 = icmp eq i32 %54, %56
  br i1 %57, label %58, label %72

58:                                               ; preds = %53
  %59 = load i32, i32* %6, align 4
  %60 = sext i32 %59 to i64
  %61 = getelementptr inbounds [1000 x i32], [1000 x i32]* %4, i64 0, i64 %60
  %62 = load i32, i32* %61, align 4
  %63 = load i32, i32* %7, align 4
  %64 = sext i32 %63 to i64
  %65 = getelementptr inbounds [1000 x i32], [1000 x i32]* %4, i64 0, i64 %64
  %66 = load i32, i32* %65, align 4
  %67 = add nsw i32 %62, %66
  %68 = load i32, i32* %3, align 4
  %69 = icmp ne i32 %67, %68
  br i1 %69, label %70, label %72

70:                                               ; preds = %58
  %71 = call i32 (i8*, ...) @printf(i8* getelementptr inbounds ([3 x i8], [3 x i8]* @.str.3, i64 0, i64 0))
  store i32 0, i32* %1, align 4
  br label %80

72:                                               ; preds = %58, %53, %48
  br label %73

73:                                               ; preds = %72
  %74 = load i32, i32* %7, align 4
  %75 = add nsw i32 %74, 1
  store i32 %75, i32* %7, align 4
  br label %30

76:                                               ; preds = %30
  br label %77

77:                                               ; preds = %76
  %78 = load i32, i32* %6, align 4
  %79 = add nsw i32 %78, 1
  store i32 %79, i32* %6, align 4
  br label %22

80:                                               ; preds = %46, %70, %22
  %81 = load i32, i32* %1, align 4
  ret i32 %81
}

declare dso_local i32 @__isoc99_scanf(i8*, ...) #1

declare dso_local i32 @printf(i8*, ...) #1


!llvm.module.flags = !{!0}
!llvm.ident = !{!1}

!0 = !{i32 1, !"wchar_size", i32 4}
!1 = !{!"clang version 10.0.0-4ubuntu1 "}
